target datalayout = "e-m:e-p270:32:32-p271:32:32-p272:64:64-i64:64-i128:128-f80:128-n8:16:32:64-S128"
target triple = "x86_64-pc-linux-gnu"

%struct.tr2_tgt = type { ptr, ptr, ptr, ptr, ptr, ptr, ptr, ptr, ptr, ptr, ptr, ptr, ptr, ptr, ptr, ptr, ptr, ptr, ptr, ptr, ptr, ptr, ptr, ptr, ptr, ptr, ptr, ptr, ptr, ptr }

@tr2_tgt_builtins = internal global [4 x ptr] [ptr @tr2_tgt_normal, ptr @tr2_tgt_perf, ptr @tr2_tgt_event, ptr null], align 16

; Function Attrs: nounwind uwtable
define internal void @tr2main_signal_handler(i32 noundef %0) #0 {
  %2 = alloca i32, align 4
  %3 = alloca ptr, align 8
  %4 = alloca i32, align 4
  %5 = alloca i64, align 8
  %6 = alloca i64, align 8
  store i32 %0, ptr %2, align 4, !tbaa !9
  call void @llvm.lifetime.start.p0(i64 8, ptr %3) #9
  call void @llvm.lifetime.start.p0(i64 4, ptr %4) #9
  call void @llvm.lifetime.start.p0(i64 8, ptr %5) #9
  call void @llvm.lifetime.start.p0(i64 8, ptr %6) #9
  %7 = call i64 @getnanotime()
  %8 = udiv i64 %7, 1000
  store i64 %8, ptr %5, align 8, !tbaa !21
  %9 = load i64, ptr %5, align 8, !tbaa !21
  %10 = call i64 @tr2tls_absolute_elapsed(i64 noundef %9)
  store i64 %10, ptr %6, align 8, !tbaa !21
  store i32 0, ptr %4, align 4, !tbaa !9
  %11 = load i32, ptr %4, align 4, !tbaa !9
  %12 = sext i32 %11 to i64
  %13 = getelementptr inbounds [4 x ptr], ptr @tr2_tgt_builtins, i64 0, i64 %12
  %14 = load ptr, ptr %13, align 8, !tbaa !11
  store ptr %14, ptr %3, align 8, !tbaa !11
  br label %15

15:                                               ; preds = %37, %1
  %16 = load ptr, ptr %3, align 8, !tbaa !11
  %17 = icmp ne ptr %16, null
  br i1 %17, label %18, label %44

18:                                               ; preds = %15
  %19 = load ptr, ptr %3, align 8, !tbaa !11
  %20 = getelementptr inbounds nuw %struct.tr2_tgt, ptr %19, i32 0, i32 0
  %21 = load ptr, ptr %20, align 8, !tbaa !13
  %22 = call i32 @tr2_dst_trace_want(ptr noundef %21)
  %23 = icmp ne i32 %22, 0
  br i1 %23, label %24, label %36

24:                                               ; preds = %18
  %25 = load ptr, ptr %3, align 8, !tbaa !11
  %26 = getelementptr inbounds nuw %struct.tr2_tgt, ptr %25, i32 0, i32 6
  %27 = load ptr, ptr %26, align 8, !tbaa !25
  %28 = icmp ne ptr %27, null
  br i1 %28, label %29, label %35

29:                                               ; preds = %24
  %30 = load ptr, ptr %3, align 8, !tbaa !11
  %31 = getelementptr inbounds nuw %struct.tr2_tgt, ptr %30, i32 0, i32 6
  %32 = load ptr, ptr %31, align 8, !tbaa !25
  %33 = load i64, ptr %6, align 8, !tbaa !21
  %34 = load i32, ptr %2, align 4, !tbaa !9
  call void %32(i64 noundef %33, i32 noundef %34)
  br label %35

35:                                               ; preds = %29, %24
  br label %36

36:                                               ; preds = %35, %18
  br label %37

37:                                               ; preds = %36
  %38 = load i32, ptr %4, align 4, !tbaa !9
  %39 = add nsw i32 %38, 1
  store i32 %39, ptr %4, align 4, !tbaa !9
  %40 = load i32, ptr %4, align 4, !tbaa !9
  %41 = sext i32 %40 to i64
  %42 = getelementptr inbounds [4 x ptr], ptr @tr2_tgt_builtins, i64 0, i64 %41
  %43 = load ptr, ptr %42, align 8, !tbaa !11
  store ptr %43, ptr %3, align 8, !tbaa !11
  br label %15, !llvm.loop !26

44:                                               ; preds = %15
  %45 = load i32, ptr %2, align 4, !tbaa !9
  %46 = call i32 @sigchain_pop(i32 noundef %45)
  %47 = load i32, ptr %2, align 4, !tbaa !9
  %48 = call i32 @raise(i32 noundef %47) #9
  call void @llvm.lifetime.end.p0(i64 8, ptr %6) #9
  call void @llvm.lifetime.end.p0(i64 8, ptr %5) #9
  call void @llvm.lifetime.end.p0(i64 4, ptr %4) #9
  call void @llvm.lifetime.end.p0(i64 8, ptr %3) #9
  ret void
}