; Function Attrs: nounwind uwtable
define internal void @tr2main_signal_handler(i32 noundef %0) #0 {
  %2 = tail call i64 @getnanotime() #11
  %3 = udiv i64 %2, 1000
  %4 = tail call i64 @tr2tls_absolute_elapsed(i64 noundef %3) #11
  br label %5

5:                                                ; preds = %1, %12
  %indvars.iv = phi i64 [ 0, %1 ], [ %indvars.iv.next, %12 ]
  %.016 = phi ptr [ @tr2_tgt_normal, %1 ], [ %14, %12 ]
  %6 = load ptr, ptr %.016, align 8, !tbaa !14
  %7 = tail call i32 @tr2_dst_trace_want(ptr noundef %6) #11
  %.not13 = icmp eq i32 %7, 0
  br i1 %.not13, label %12, label %8

8:                                                ; preds = %5
  %9 = getelementptr inbounds nuw i8, ptr %.016, i64 48
  %10 = load ptr, ptr %9, align 8, !tbaa !23
  %.not14 = icmp eq ptr %10, null
  br i1 %.not14, label %12, label %11

11:                                               ; preds = %8
  tail call void %10(i64 noundef %4, i32 noundef %0) #11
  br label %12

12:                                               ; preds = %5, %11, %8
  %indvars.iv.next = add nuw nsw i64 %indvars.iv, 1
  %13 = getelementptr inbounds nuw [4 x ptr], ptr @tr2_tgt_builtins, i64 0, i64 %indvars.iv.next
  %14 = load ptr, ptr %13, align 8, !tbaa !10
  %.not = icmp eq i64 %indvars.iv.next, 3
  br i1 %.not, label %15, label %5, !llvm.loop !24

15:                                               ; preds = %12
  %16 = tail call i32 @sigchain_pop(i32 noundef %0) #11
  %17 = tail call i32 @raise(i32 noundef %0) #11
  ret void
}